; Function Attrs: nounwind uwtable
define internal fastcc range(i32 -996, 1) i32 @KINConstraint(ptr noundef nonnull captures(none) %0) unnamed_addr #0 {
  %2 = getelementptr inbounds nuw i8, ptr %0, i64 264
  %3 = load ptr, ptr %2, align 8, !tbaa !78
  %4 = getelementptr inbounds nuw i8, ptr %0, i64 312
  %5 = load ptr, ptr %4, align 8, !tbaa !63
  %6 = getelementptr inbounds nuw i8, ptr %0, i64 328
  %7 = load ptr, ptr %6, align 8, !tbaa !64
  tail call void @N_VLinearSum(double noundef 1.000000e+00, ptr noundef %3, double noundef 1.000000e+00, ptr noundef %5, ptr noundef %7) #14
  %8 = getelementptr inbounds nuw i8, ptr %0, i64 320
  %9 = load ptr, ptr %8, align 8, !tbaa !87
  %10 = load ptr, ptr %6, align 8, !tbaa !64
  %11 = getelementptr inbounds nuw i8, ptr %0, i64 336
  %12 = load ptr, ptr %11, align 8, !tbaa !65
  %13 = tail call i32 @N_VConstrMask(ptr noundef %9, ptr noundef %10, ptr noundef %12) #14
  %.not = icmp eq i32 %13, 0
  br i1 %.not, label %14, label %26

14:                                               ; preds = %1
  %15 = load ptr, ptr %4, align 8, !tbaa !63
  %16 = load ptr, ptr %6, align 8, !tbaa !64
  tail call void @N_VAbs(ptr noundef %15, ptr noundef %16) #14
  %17 = load ptr, ptr %11, align 8, !tbaa !65
  %18 = load ptr, ptr %6, align 8, !tbaa !64
  tail call void @N_VProd(ptr noundef %17, ptr noundef %18, ptr noundef %18) #14
  %19 = load ptr, ptr %2, align 8, !tbaa !78
  %20 = load ptr, ptr %11, align 8, !tbaa !65
  tail call void @N_VAbs(ptr noundef %19, ptr noundef %20) #14
  %21 = load ptr, ptr %11, align 8, !tbaa !65
  %22 = load ptr, ptr %6, align 8, !tbaa !64
  %23 = tail call double @N_VMinQuotient(ptr noundef %21, ptr noundef %22) #14
  %24 = fmul double %23, 9.000000e-01
  %25 = getelementptr inbounds nuw i8, ptr %0, i64 152
  store double %24, ptr %25, align 8, !tbaa !112
  br label %26

26:                                               ; preds = %1, %14
  %.0 = phi i32 [ -996, %14 ], [ 0, %1 ]
  ret i32 %.0
}